
intr_test.elf:     file format elf32-littleriscv


Disassembly of section .text.start:

00000000 <_start>:
   0:	00001137          	lui	sp,0x1
   4:	2d0000ef          	jal	ra,2d4 <main>

00000008 <start>:
   8:	ff010113          	addi	sp,sp,-16 # ff0 <g_timer_flag+0xb44>
   c:	00812623          	sw	s0,12(sp)
  10:	01010413          	addi	s0,sp,16
  14:	00001137          	lui	sp,0x1
  18:	00000097          	auipc	ra,0x0
  1c:	2bc080e7          	jalr	700(ra) # 2d4 <main>
  20:	00000013          	nop
  24:	00c12403          	lw	s0,12(sp) # 100c <g_timer_flag+0xb60>
  28:	01010113          	addi	sp,sp,16
  2c:	00008067          	ret

Disassembly of section .text.ivt:

00000100 <ivt>:
 100:	0200006f          	j	120 <handler_timer>
 104:	0900006f          	j	194 <handler_btn>
 108:	19c0006f          	j	2a4 <handler_nop>
 10c:	1980006f          	j	2a4 <handler_nop>
 110:	1940006f          	j	2a4 <handler_nop>
 114:	1900006f          	j	2a4 <handler_nop>
 118:	18c0006f          	j	2a4 <handler_nop>
 11c:	1640006f          	j	280 <handler_ecall>

Disassembly of section .text.handlers:

00000120 <handler_timer>:
 120:	fc010113          	addi	sp,sp,-64
 124:	00112023          	sw	ra,0(sp)
 128:	00512223          	sw	t0,4(sp)
 12c:	00612423          	sw	t1,8(sp)
 130:	00712623          	sw	t2,12(sp)
 134:	01c12823          	sw	t3,16(sp)
 138:	00a12a23          	sw	a0,20(sp)
 13c:	00b12c23          	sw	a1,24(sp)
 140:	00c12e23          	sw	a2,28(sp)
 144:	02d12023          	sw	a3,32(sp)
 148:	4ac00293          	li	t0,1196
 14c:	0002a303          	lw	t1,0(t0)
 150:	00134313          	xori	t1,t1,1
 154:	0062a023          	sw	t1,0(t0)
 158:	4a800293          	li	t0,1192
 15c:	0002a303          	lw	t1,0(t0)
 160:	00130313          	addi	t1,t1,1
 164:	0062a023          	sw	t1,0(t0)
 168:	00012083          	lw	ra,0(sp)
 16c:	00412283          	lw	t0,4(sp)
 170:	00812303          	lw	t1,8(sp)
 174:	00c12383          	lw	t2,12(sp)
 178:	01012e03          	lw	t3,16(sp)
 17c:	01412503          	lw	a0,20(sp)
 180:	01812583          	lw	a1,24(sp)
 184:	01c12603          	lw	a2,28(sp)
 188:	02012683          	lw	a3,32(sp)
 18c:	04010113          	addi	sp,sp,64
 190:	00200073          	uret

00000194 <handler_btn>:
 194:	fc010113          	addi	sp,sp,-64
 198:	00112023          	sw	ra,0(sp)
 19c:	00512223          	sw	t0,4(sp)
 1a0:	00612423          	sw	t1,8(sp)
 1a4:	00712623          	sw	t2,12(sp)
 1a8:	01c12823          	sw	t3,16(sp)
 1ac:	00a12a23          	sw	a0,20(sp)
 1b0:	00b12c23          	sw	a1,24(sp)
 1b4:	00c12e23          	sw	a2,28(sp)
 1b8:	02d12023          	sw	a3,32(sp)
 1bc:	e00002b7          	lui	t0,0xe0000
 1c0:	0002a303          	lw	t1,0(t0) # e0000000 <g_timer_flag+0xdffffb54>
 1c4:	01035313          	srli	t1,t1,0x10
 1c8:	01f37313          	andi	t1,t1,31
 1cc:	49c00293          	li	t0,1180
 1d0:	0002a383          	lw	t2,0(t0)
 1d4:	00734e33          	xor	t3,t1,t2
 1d8:	006e7e33          	and	t3,t3,t1
 1dc:	0062a023          	sw	t1,0(t0)
 1e0:	010e7293          	andi	t0,t3,16
 1e4:	00028c63          	beqz	t0,1fc <btn_not_center>
 1e8:	49800293          	li	t0,1176
 1ec:	0002a303          	lw	t1,0(t0)
 1f0:	00130313          	addi	t1,t1,1
 1f4:	0ff37313          	zext.b	t1,t1
 1f8:	0062a023          	sw	t1,0(t0)

000001fc <btn_not_center>:
 1fc:	001e7293          	andi	t0,t3,1
 200:	00028c63          	beqz	t0,218 <btn_not_up>
 204:	49800293          	li	t0,1176
 208:	0002a303          	lw	t1,0(t0)
 20c:	fff30313          	addi	t1,t1,-1
 210:	0ff37313          	zext.b	t1,t1
 214:	0062a023          	sw	t1,0(t0)

00000218 <btn_not_up>:
 218:	004e7293          	andi	t0,t3,4
 21c:	00028863          	beqz	t0,22c <btn_not_down>
 220:	49800293          	li	t0,1176
 224:	00000313          	li	t1,0
 228:	0062a023          	sw	t1,0(t0)

0000022c <btn_not_down>:
 22c:	008e7293          	andi	t0,t3,8
 230:	00028a63          	beqz	t0,244 <btn_not_left>
 234:	49400293          	li	t0,1172
 238:	0002a303          	lw	t1,0(t0)
 23c:	00134313          	xori	t1,t1,1
 240:	0062a023          	sw	t1,0(t0)

00000244 <btn_not_left>:
 244:	4a400293          	li	t0,1188
 248:	0002a303          	lw	t1,0(t0)
 24c:	00130313          	addi	t1,t1,1
 250:	0062a023          	sw	t1,0(t0)
 254:	00012083          	lw	ra,0(sp)
 258:	00412283          	lw	t0,4(sp)
 25c:	00812303          	lw	t1,8(sp)
 260:	00c12383          	lw	t2,12(sp)
 264:	01012e03          	lw	t3,16(sp)
 268:	01412503          	lw	a0,20(sp)
 26c:	01812583          	lw	a1,24(sp)
 270:	01c12603          	lw	a2,28(sp)
 274:	02012683          	lw	a3,32(sp)
 278:	04010113          	addi	sp,sp,64
 27c:	00200073          	uret

00000280 <handler_ecall>:
 280:	ffc10113          	addi	sp,sp,-4
 284:	00112023          	sw	ra,0(sp)
 288:	4a000293          	li	t0,1184
 28c:	0002a303          	lw	t1,0(t0)
 290:	00130313          	addi	t1,t1,1
 294:	0062a023          	sw	t1,0(t0)
 298:	00012083          	lw	ra,0(sp)
 29c:	00410113          	addi	sp,sp,4
 2a0:	00200073          	uret

000002a4 <handler_nop>:
 2a4:	00200073          	uret

Disassembly of section .text:

000002a8 <delay>:
 2a8:	ff010113          	addi	sp,sp,-16
 2ac:	00012623          	sw	zero,12(sp)
 2b0:	00c12783          	lw	a5,12(sp)
 2b4:	00a7dc63          	bge	a5,a0,2cc <delay+0x24>
 2b8:	00c12783          	lw	a5,12(sp)
 2bc:	00178793          	addi	a5,a5,1
 2c0:	00f12623          	sw	a5,12(sp)
 2c4:	00c12783          	lw	a5,12(sp)
 2c8:	fea7c8e3          	blt	a5,a0,2b8 <delay+0x10>
 2cc:	01010113          	addi	sp,sp,16
 2d0:	00008067          	ret

000002d4 <main>:
 2d4:	fe010113          	addi	sp,sp,-32
 2d8:	00112e23          	sw	ra,28(sp)
 2dc:	00912c23          	sw	s1,24(sp)
 2e0:	01212a23          	sw	s2,20(sp)
 2e4:	01312823          	sw	s3,16(sp)
 2e8:	01412623          	sw	s4,12(sp)
 2ec:	01512423          	sw	s5,8(sp)
 2f0:	01612223          	sw	s6,4(sp)
 2f4:	01712023          	sw	s7,0(sp)
 2f8:	00000493          	li	s1,0
 2fc:	10049073          	csrw	sstatus,s1
 300:	0ff00793          	li	a5,255
 304:	10179073          	csrw	0x101,a5
 308:	f0000737          	lui	a4,0xf0000
 30c:	00072023          	sw	zero,0(a4) # f0000000 <g_timer_flag+0xeffffb54>
 310:	e0000737          	lui	a4,0xe0000
 314:	00072023          	sw	zero,0(a4) # e0000000 <g_timer_flag+0xdffffb54>
 318:	10049073          	csrw	sstatus,s1
 31c:	10179073          	csrw	0x101,a5
 320:	00000073          	ecall
 324:	000007b7          	lui	a5,0x0
 328:	4a07a783          	lw	a5,1184(a5) # 4a0 <g_ecall_count>
 32c:	0ff7f793          	zext.b	a5,a5
 330:	00f72023          	sw	a5,0(a4)
 334:	002dc537          	lui	a0,0x2dc
 338:	6c050513          	addi	a0,a0,1728 # 2dc6c0 <g_timer_flag+0x2dc214>
 33c:	00000097          	auipc	ra,0x0
 340:	f6c080e7          	jalr	-148(ra) # 2a8 <delay>
 344:	00500793          	li	a5,5
 348:	10079073          	csrw	sstatus,a5
 34c:	10149073          	csrw	0x101,s1
 350:	000007b7          	lui	a5,0x0
 354:	4a47a683          	lw	a3,1188(a5) # 4a4 <g_btn_count>
 358:	4a47a783          	lw	a5,1188(a5)
 35c:	02d79063          	bne	a5,a3,37c <main+0xa8>
 360:	004c57b7          	lui	a5,0x4c5
 364:	b4078793          	addi	a5,a5,-1216 # 4c4b40 <g_timer_flag+0x4c4694>
 368:	00000637          	lui	a2,0x0
 36c:	4a462703          	lw	a4,1188(a2) # 4a4 <g_btn_count>
 370:	00e69663          	bne	a3,a4,37c <main+0xa8>
 374:	fff78793          	addi	a5,a5,-1
 378:	fe079ae3          	bnez	a5,36c <main+0x98>
 37c:	000007b7          	lui	a5,0x0
 380:	4a47a783          	lw	a5,1188(a5) # 4a4 <g_btn_count>
 384:	0ff7f793          	zext.b	a5,a5
 388:	e0000737          	lui	a4,0xe0000
 38c:	00f72023          	sw	a5,0(a4) # e0000000 <g_timer_flag+0xdffffb54>
 390:	002dc537          	lui	a0,0x2dc
 394:	6c050513          	addi	a0,a0,1728 # 2dc6c0 <g_timer_flag+0x2dc214>
 398:	00000097          	auipc	ra,0x0
 39c:	f10080e7          	jalr	-240(ra) # 2a8 <delay>
 3a0:	00300793          	li	a5,3
 3a4:	10079073          	csrw	sstatus,a5
 3a8:	00000793          	li	a5,0
 3ac:	10179073          	csrw	0x101,a5
 3b0:	000007b7          	lui	a5,0x0
 3b4:	4a87a683          	lw	a3,1192(a5) # 4a8 <g_timer_count>
 3b8:	4a87a783          	lw	a5,1192(a5)
 3bc:	02d79063          	bne	a5,a3,3dc <main+0x108>
 3c0:	004c57b7          	lui	a5,0x4c5
 3c4:	b4078793          	addi	a5,a5,-1216 # 4c4b40 <g_timer_flag+0x4c4694>
 3c8:	00000637          	lui	a2,0x0
 3cc:	4a862703          	lw	a4,1192(a2) # 4a8 <g_timer_count>
 3d0:	00e69663          	bne	a3,a4,3dc <main+0x108>
 3d4:	fff78793          	addi	a5,a5,-1
 3d8:	fe079ae3          	bnez	a5,3cc <main+0xf8>
 3dc:	000007b7          	lui	a5,0x0
 3e0:	4a87a783          	lw	a5,1192(a5) # 4a8 <g_timer_count>
 3e4:	0ff7f793          	zext.b	a5,a5
 3e8:	e0000737          	lui	a4,0xe0000
 3ec:	00f72023          	sw	a5,0(a4) # e0000000 <g_timer_flag+0xdffffb54>
 3f0:	002dc537          	lui	a0,0x2dc
 3f4:	6c050513          	addi	a0,a0,1728 # 2dc6c0 <g_timer_flag+0x2dc214>
 3f8:	00000097          	auipc	ra,0x0
 3fc:	eb0080e7          	jalr	-336(ra) # 2a8 <delay>
 400:	00700793          	li	a5,7
 404:	10079073          	csrw	sstatus,a5
 408:	00000793          	li	a5,0
 40c:	10179073          	csrw	0x101,a5
 410:	e00004b7          	lui	s1,0xe0000
 414:	00000b37          	lui	s6,0x0
 418:	00000ab7          	lui	s5,0x0
 41c:	00100b93          	li	s7,1
 420:	000109b7          	lui	s3,0x10
 424:	fff98993          	addi	s3,s3,-1 # ffff <g_timer_flag+0xfb53>
 428:	f0000a37          	lui	s4,0xf0000
 42c:	0000c937          	lui	s2,0xc
 430:	35090913          	addi	s2,s2,848 # c350 <g_timer_flag+0xbea4>
 434:	0300006f          	j	464 <main+0x190>
 438:	00f67693          	andi	a3,a2,15
 43c:	00268693          	addi	a3,a3,2
 440:	00db96b3          	sll	a3,s7,a3
 444:	0136f6b3          	and	a3,a3,s3
 448:	00da2023          	sw	a3,0(s4) # f0000000 <g_timer_flag+0xeffffb54>
 44c:	0380006f          	j	484 <main+0x1b0>
 450:	0ff7f793          	zext.b	a5,a5
 454:	00f4a023          	sw	a5,0(s1) # e0000000 <g_timer_flag+0xdffffb54>
 458:	00090513          	mv	a0,s2
 45c:	00000097          	auipc	ra,0x0
 460:	e4c080e7          	jalr	-436(ra) # 2a8 <delay>
 464:	0004a783          	lw	a5,0(s1)
 468:	0107d713          	srli	a4,a5,0x10
 46c:	498b2603          	lw	a2,1176(s6) # 498 <g_counter>
 470:	494aa683          	lw	a3,1172(s5) # 494 <g_led_mode>
 474:	fc0692e3          	bnez	a3,438 <main+0x164>
 478:	00279693          	slli	a3,a5,0x2
 47c:	0136f6b3          	and	a3,a3,s3
 480:	00da2023          	sw	a3,0(s4)
 484:	00277713          	andi	a4,a4,2
 488:	fc0714e3          	bnez	a4,450 <main+0x17c>
 48c:	00c4a023          	sw	a2,0(s1)
 490:	fc9ff06f          	j	458 <main+0x184>
